target datalayout = "e-m:e-p270:32:32-p271:32:32-p272:64:64-i64:64-i128:128-f80:128-n8:16:32:64-S128"
target triple = "x86_64-pc-linux-gnu"

%"struct.icu_77::PCEBuffer" = type { [16 x %"struct.icu_77::PCEI"], ptr, i32, i32 }
%"struct.icu_77::PCEI" = type { i64, i32, i32 }

; Function Attrs: mustprogress nounwind uwtable
define noundef ptr @_ZN6icu_779PCEBuffer3getEv(ptr noundef nonnull align 8 dereferenceable(272) %0) #0 align 2 {
  %2 = alloca ptr, align 8
  %3 = alloca ptr, align 8
  store ptr %0, ptr %3, align 8, !tbaa !23
  %4 = load ptr, ptr %3, align 8
  %5 = getelementptr inbounds nuw %"struct.icu_77::PCEBuffer", ptr %4, i32 0, i32 2
  %6 = load i32, ptr %5, align 8, !tbaa !28
  %7 = icmp sgt i32 %6, 0
  br i1 %7, label %8, label %16

8:                                                ; preds = %1
  %9 = getelementptr inbounds nuw %"struct.icu_77::PCEBuffer", ptr %4, i32 0, i32 1
  %10 = load ptr, ptr %9, align 8, !tbaa !25
  %11 = getelementptr inbounds nuw %"struct.icu_77::PCEBuffer", ptr %4, i32 0, i32 2
  %12 = load i32, ptr %11, align 8, !tbaa !28
  %13 = add nsw i32 %12, -1
  store i32 %13, ptr %11, align 8, !tbaa !28
  %14 = sext i32 %13 to i64
  %15 = getelementptr inbounds %"struct.icu_77::PCEI", ptr %10, i64 %14
  store ptr %15, ptr %2, align 8
  br label %17

16:                                               ; preds = %1
  store ptr null, ptr %2, align 8
  br label %17

17:                                               ; preds = %16, %8
  %18 = load ptr, ptr %2, align 8
  ret ptr %18
}